target datalayout = "e-m:e-p270:32:32-p271:32:32-p272:64:64-i64:64-i128:128-f80:128-n8:16:32:64-S128"
target triple = "x86_64-pc-linux-gnu"

; Function Attrs: nounwind uwtable
define i64 @ossl_lh_strcasehash(ptr noundef %0) #0 {
  %2 = alloca i64, align 8
  %3 = alloca ptr, align 8
  %4 = alloca i64, align 8
  %5 = alloca i64, align 8
  %6 = alloca i64, align 8
  %7 = alloca i32, align 4
  %8 = alloca i64, align 8
  %9 = alloca i32, align 4
  store ptr %0, ptr %3, align 8, !tbaa !25
  call void @llvm.lifetime.start.p0(i64 8, ptr %4) #5
  store i64 0, ptr %4, align 8, !tbaa !27
  call void @llvm.lifetime.start.p0(i64 8, ptr %5) #5
  call void @llvm.lifetime.start.p0(i64 8, ptr %6) #5
  call void @llvm.lifetime.start.p0(i64 4, ptr %7) #5
  call void @llvm.lifetime.start.p0(i64 8, ptr %8) #5
  store i64 -33, ptr %8, align 8, !tbaa !27
  %10 = load ptr, ptr %3, align 8, !tbaa !25
  %11 = icmp eq ptr %10, null
  br i1 %11, label %17, label %12

12:                                               ; preds = %1
  %13 = load ptr, ptr %3, align 8, !tbaa !25
  %14 = load i8, ptr %13, align 1, !tbaa !28
  %15 = sext i8 %14 to i32
  %16 = icmp eq i32 %15, 0
  br i1 %16, label %17, label %19

17:                                               ; preds = %12, %1
  %18 = load i64, ptr %4, align 8, !tbaa !27
  store i64 %18, ptr %2, align 8
  store i32 1, ptr %9, align 4
  br label %65

19:                                               ; preds = %12
  store i64 256, ptr %5, align 8, !tbaa !27
  br label %20

20:                                               ; preds = %57, %19
  %21 = load ptr, ptr %3, align 8, !tbaa !25
  %22 = load i8, ptr %21, align 1, !tbaa !28
  %23 = sext i8 %22 to i32
  %24 = icmp ne i32 %23, 0
  br i1 %24, label %25, label %60

25:                                               ; preds = %20
  %26 = load i64, ptr %5, align 8, !tbaa !27
  %27 = load ptr, ptr %3, align 8, !tbaa !25
  %28 = load i8, ptr %27, align 1, !tbaa !28
  %29 = sext i8 %28 to i64
  %30 = and i64 -33, %29
  %31 = or i64 %26, %30
  store i64 %31, ptr %6, align 8, !tbaa !27
  %32 = load i64, ptr %6, align 8, !tbaa !27
  %33 = lshr i64 %32, 2
  %34 = load i64, ptr %6, align 8, !tbaa !27
  %35 = xor i64 %33, %34
  %36 = trunc i64 %35 to i32
  %37 = and i32 %36, 15
  store i32 %37, ptr %7, align 4, !tbaa !29
  %38 = load i64, ptr %4, align 8, !tbaa !27
  %39 = load i32, ptr %7, align 4, !tbaa !29
  %40 = zext i32 %39 to i64
  %41 = shl i64 %38, %40
  %42 = load i64, ptr %4, align 8, !tbaa !27
  %43 = load i32, ptr %7, align 4, !tbaa !29
  %44 = sub nsw i32 32, %43
  %45 = zext i32 %44 to i64
  %46 = lshr i64 %42, %45
  %47 = or i64 %41, %46
  store i64 %47, ptr %4, align 8, !tbaa !27
  %48 = load i64, ptr %4, align 8, !tbaa !27
  %49 = and i64 %48, 4294967295
  store i64 %49, ptr %4, align 8, !tbaa !27
  %50 = load i64, ptr %6, align 8, !tbaa !27
  %51 = load i64, ptr %6, align 8, !tbaa !27
  %52 = mul i64 %50, %51
  %53 = load i64, ptr %4, align 8, !tbaa !27
  %54 = xor i64 %53, %52
  store i64 %54, ptr %4, align 8, !tbaa !27
  %55 = load ptr, ptr %3, align 8, !tbaa !25
  %56 = getelementptr inbounds nuw i8, ptr %55, i32 1
  store ptr %56, ptr %3, align 8, !tbaa !25
  br label %57

57:                                               ; preds = %25
  %58 = load i64, ptr %5, align 8, !tbaa !27
  %59 = add nsw i64 %58, 256
  store i64 %59, ptr %5, align 8, !tbaa !27
  br label %20, !llvm.loop !51

60:                                               ; preds = %20
  %61 = load i64, ptr %4, align 8, !tbaa !27
  %62 = lshr i64 %61, 16
  %63 = load i64, ptr %4, align 8, !tbaa !27
  %64 = xor i64 %62, %63
  store i64 %64, ptr %2, align 8
  store i32 1, ptr %9, align 4
  br label %65

65:                                               ; preds = %60, %17
  call void @llvm.lifetime.end.p0(i64 8, ptr %8) #5
  call void @llvm.lifetime.end.p0(i64 4, ptr %7) #5
  call void @llvm.lifetime.end.p0(i64 8, ptr %6) #5
  call void @llvm.lifetime.end.p0(i64 8, ptr %5) #5
  call void @llvm.lifetime.end.p0(i64 8, ptr %4) #5
  %66 = load i64, ptr %2, align 8
  ret i64 %66
}