; Function Attrs: nofree norecurse nosync nounwind memory(argmem: read) uwtable
define i64 @ossl_lh_strcasehash(ptr noundef readonly captures(address_is_null) %0) local_unnamed_addr #4 {
  %2 = icmp eq ptr %0, null
  br i1 %2, label %25, label %3

3:                                                ; preds = %1
  %4 = load i8, ptr %0, align 1, !tbaa !22
  %5 = icmp eq i8 %4, 0
  br i1 %5, label %25, label %.preheader

.preheader:                                       ; preds = %3, %.preheader
  %.02026 = phi ptr [ %20, %.preheader ], [ %0, %3 ]
  %.02125 = phi i64 [ %19, %.preheader ], [ 0, %3 ]
  %.02224 = phi i64 [ %21, %.preheader ], [ 256, %3 ]
  %6 = phi i8 [ %.pr, %.preheader ], [ %4, %3 ]
  %7 = and i8 %6, -33
  %8 = sext i8 %7 to i64
  %9 = or i64 %.02224, %8
  %10 = lshr i64 %8, 2
  %11 = xor i64 %10, %8
  %12 = and i64 %11, 15
  %13 = shl i64 %.02125, %12
  %14 = sub nuw nsw i64 32, %12
  %15 = lshr i64 %.02125, %14
  %16 = or i64 %15, %13
  %17 = and i64 %16, 4294967295
  %18 = mul i64 %9, %9
  %19 = xor i64 %17, %18
  %20 = getelementptr inbounds nuw i8, ptr %.02026, i64 1
  %21 = add nuw nsw i64 %.02224, 256
  %.pr = load i8, ptr %20, align 1, !tbaa !22
  %.not = icmp eq i8 %.pr, 0
  br i1 %.not, label %22, label %.preheader, !llvm.loop !41

22:                                               ; preds = %.preheader
  %23 = lshr i64 %19, 16
  %24 = xor i64 %23, %19
  br label %25

25:                                               ; preds = %1, %3, %22
  %.0 = phi i64 [ %24, %22 ], [ 0, %3 ], [ 0, %1 ]
  ret i64 %.0
}